; Function Attrs: nounwind uwtable
define internal i32 @try_read_command_udp(ptr noundef initializes((260, 264)) %0) #1 {
  %2 = getelementptr inbounds nuw i8, ptr %0, i64 184
  %3 = load ptr, ptr %2, align 8, !tbaa !41
  %4 = load i8, ptr %3, align 1, !tbaa !76
  %5 = icmp eq i8 %4, -128
  %6 = getelementptr inbounds nuw i8, ptr %0, i64 260
  br i1 %5, label %7, label %9

7:                                                ; preds = %1
  store i32 4, ptr %6, align 4, !tbaa !67
  %8 = tail call i32 @try_read_command_binary(ptr noundef nonnull %0) #34
  br label %11

9:                                                ; preds = %1
  store i32 3, ptr %6, align 4, !tbaa !67
  %10 = tail call i32 @try_read_command_ascii(ptr noundef nonnull %0) #34
  br label %11

11:                                               ; preds = %9, %7
  %.0 = phi i32 [ %8, %7 ], [ %10, %9 ]
  ret i32 %.0
}